; Function Attrs: mustprogress nounwind uwtable
define hidden noundef ptr @_ZN12AllocateNode16Ideal_allocationEP4NodeP11PhaseValuesRl(ptr noundef %0, ptr noundef %1, ptr noundef nonnull align 8 dereferenceable(8) %2) local_unnamed_addr #0 align 2 {
  %4 = tail call noundef ptr @_ZN8AddPNode21Ideal_base_and_offsetEP4NodeP11PhaseValuesRl(ptr noundef %0, ptr noundef %1, ptr noundef nonnull align 8 dereferenceable(8) %2) #13
  %5 = icmp eq ptr %4, null
  br i1 %5, label %_ZN12AllocateNode16Ideal_allocationEP4Node.exit, label %6

6:                                                ; preds = %3
  %7 = load ptr, ptr @_ZN10BarrierSet12_barrier_setE, align 8
  %8 = getelementptr inbounds i8, ptr %7, i64 40
  %9 = load ptr, ptr %8, align 8
  %10 = load ptr, ptr %9, align 8
  %11 = getelementptr inbounds i8, ptr %10, i64 168
  %12 = load ptr, ptr %11, align 8
  %13 = tail call noundef ptr %12(ptr noundef nonnull align 8 dereferenceable(8) %9, ptr noundef nonnull %4) #13
  %14 = getelementptr inbounds i8, ptr %13, i64 44
  %15 = load i32, ptr %14, align 4
  %16 = and i32 %15, 127
  %17 = icmp eq i32 %16, 84
  br i1 %17, label %18, label %24

18:                                               ; preds = %6
  %19 = getelementptr inbounds i8, ptr %13, i64 8
  %20 = load ptr, ptr %19, align 8
  %21 = getelementptr inbounds i8, ptr %20, i64 8
  %22 = load ptr, ptr %21, align 8
  %23 = icmp eq ptr %22, null
  br i1 %23, label %_ZN12AllocateNode16Ideal_allocationEP4Node.exit, label %._crit_edge.i

._crit_edge.i:                                    ; preds = %18
  %.phi.trans.insert.i = getelementptr inbounds i8, ptr %22, i64 44
  %.pre.i = load i32, ptr %.phi.trans.insert.i, align 4
  br label %24

24:                                               ; preds = %._crit_edge.i, %6
  %25 = phi i32 [ %.pre.i, %._crit_edge.i ], [ %15, %6 ]
  %.012.i = phi ptr [ %22, %._crit_edge.i ], [ %13, %6 ]
  %26 = and i32 %25, 15
  %27 = icmp eq i32 %26, 8
  br i1 %27, label %28, label %_ZN12AllocateNode16Ideal_allocationEP4Node.exit

28:                                               ; preds = %24
  %29 = getelementptr inbounds i8, ptr %.012.i, i64 8
  %30 = load ptr, ptr %29, align 8
  %31 = load ptr, ptr %30, align 8
  %.not.i = icmp eq ptr %31, null
  br i1 %.not.i, label %_ZN12AllocateNode16Ideal_allocationEP4Node.exit, label %32

32:                                               ; preds = %28
  %33 = getelementptr inbounds i8, ptr %31, i64 44
  %34 = load i32, ptr %33, align 4
  %35 = and i32 %34, 63
  %36 = icmp eq i32 %35, 39
  %spec.select.i = select i1 %36, ptr %31, ptr null
  br label %_ZN12AllocateNode16Ideal_allocationEP4Node.exit

_ZN12AllocateNode16Ideal_allocationEP4Node.exit:  ; preds = %32, %28, %24, %18, %3
  %.0 = phi ptr [ null, %3 ], [ null, %18 ], [ null, %28 ], [ null, %24 ], [ %spec.select.i, %32 ]
  ret ptr %.0
}